target datalayout = "e-m:e-p270:32:32-p271:32:32-p272:64:64-i64:64-i128:128-f80:128-n8:16:32:64-S128"
target triple = "x86_64-pc-linux-gnu"

%struct.optstruct = type { ptr, ptr, ptr, i64, i32, i32, i32, i32, ptr, ptr, ptr }
%struct.stat = type { i64, i64, i64, i32, i32, i32, i32, i64, i64, i64, i64, %struct.timespec, %struct.timespec, %struct.timespec, [3 x i64] }
%struct.timespec = type { i64, i64 }
%struct.regex_t = type { i32, i64, ptr, ptr }

@mprintf_stdout = external global i16, align 2
@.str.27 = private unnamed_addr constant [10 x i8] c"list-sigs\00", align 1
@.str.28 = private unnamed_addr constant [10 x i8] c"find-sigs\00", align 1
@.str.158 = private unnamed_addr constant [8 x i8] c"datadir\00", align 1
@.str.301 = private unnamed_addr constant [37 x i8] c"--list-sigs: Can't get status of %s\0A\00", align 1
@.str.302 = private unnamed_addr constant [24 x i8] c"/usr/local/share/clamav\00", align 1
@.str.303 = private unnamed_addr constant [34 x i8] c"--find-sigs: Can't compile regex\0A\00", align 1

; Function Attrs: nounwind uwtable
define internal i32 @listsigs(ptr noundef %0, i32 noundef %1) #0 {
  %3 = alloca i32, align 4
  %4 = alloca ptr, align 8
  %5 = alloca i32, align 4
  %6 = alloca i32, align 4
  %7 = alloca ptr, align 8
  %8 = alloca ptr, align 8
  %9 = alloca %struct.stat, align 8
  %10 = alloca %struct.regex_t, align 8
  %11 = alloca ptr, align 8
  store ptr %0, ptr %4, align 8
  store i32 %1, ptr %5, align 4
  store ptr null, ptr %11, align 8
  %12 = load ptr, ptr %4, align 8
  %13 = call ptr @optget(ptr noundef %12, ptr noundef @.str.158)
  %14 = getelementptr inbounds %struct.optstruct, ptr %13, i32 0, i32 5
  %15 = load i32, ptr %14, align 4
  %16 = icmp ne i32 %15, 0
  br i1 %16, label %17, label %22

17:                                               ; preds = %2
  %18 = load ptr, ptr %4, align 8
  %19 = call ptr @optget(ptr noundef %18, ptr noundef @.str.158)
  %20 = getelementptr inbounds %struct.optstruct, ptr %19, i32 0, i32 2
  %21 = load ptr, ptr %20, align 8
  store ptr %21, ptr %11, align 8
  br label %22

22:                                               ; preds = %17, %2
  %23 = load i32, ptr %5, align 4
  %24 = icmp eq i32 %23, 0
  br i1 %24, label %25, label %76

25:                                               ; preds = %22
  %26 = load ptr, ptr %4, align 8
  %27 = call ptr @optget(ptr noundef %26, ptr noundef @.str.27)
  %28 = getelementptr inbounds %struct.optstruct, ptr %27, i32 0, i32 2
  %29 = load ptr, ptr %28, align 8
  store ptr %29, ptr %7, align 8
  %30 = load ptr, ptr %7, align 8
  %31 = call i32 @access(ptr noundef %30, i32 noundef 4) #11
  %32 = icmp ne i32 %31, 0
  br i1 %32, label %33, label %38

33:                                               ; preds = %25
  %34 = load ptr, ptr %11, align 8
  %35 = icmp ne ptr %34, null
  br i1 %35, label %36, label %38

36:                                               ; preds = %33
  %37 = load ptr, ptr %11, align 8
  store ptr %37, ptr %7, align 8
  br label %38

38:                                               ; preds = %36, %33, %25
  %39 = load ptr, ptr %7, align 8
  %40 = call i32 @stat(ptr noundef %39, ptr noundef %9) #11
  %41 = icmp eq i32 %40, -1
  br i1 %41, label %42, label %44

42:                                               ; preds = %38
  %43 = load ptr, ptr %7, align 8
  call void (i32, ptr, ...) @mprintf(i32 noundef 0, ptr noundef @.str.301, ptr noundef %43)
  store i32 -1, ptr %3, align 4
  br label %99

44:                                               ; preds = %38
  store i16 1, ptr @mprintf_stdout, align 2
  %45 = getelementptr inbounds %struct.stat, ptr %9, i32 0, i32 3
  %46 = load i32, ptr %45, align 8
  %47 = and i32 %46, 61440
  %48 = icmp eq i32 %47, 16384
  br i1 %48, label %49, label %71

49:                                               ; preds = %44
  %50 = load ptr, ptr %7, align 8
  %51 = call i32 @strcmp(ptr noundef %50, ptr noundef @.str.302) #14
  %52 = icmp ne i32 %51, 0
  br i1 %52, label %66, label %53

53:                                               ; preds = %49
  %54 = call ptr @freshdbdir()
  store ptr %54, ptr %8, align 8
  %55 = load ptr, ptr %4, align 8
  %56 = load ptr, ptr %11, align 8
  %57 = icmp ne ptr %56, null
  br i1 %57, label %58, label %60

58:                                               ; preds = %53
  %59 = load ptr, ptr %11, align 8
  br label %62

60:                                               ; preds = %53
  %61 = load ptr, ptr %8, align 8
  br label %62

62:                                               ; preds = %60, %58
  %63 = phi ptr [ %59, %58 ], [ %61, %60 ]
  %64 = call i32 @listdir(ptr noundef %55, ptr noundef %63, ptr noundef null)
  store i32 %64, ptr %6, align 4
  %65 = load ptr, ptr %8, align 8
  call void @free(ptr noundef %65) #11
  br label %70

66:                                               ; preds = %49
  %67 = load ptr, ptr %4, align 8
  %68 = load ptr, ptr %7, align 8
  %69 = call i32 @listdir(ptr noundef %67, ptr noundef %68, ptr noundef null)
  store i32 %69, ptr %6, align 4
  br label %70

70:                                               ; preds = %66, %62
  br label %75

71:                                               ; preds = %44
  %72 = load ptr, ptr %4, align 8
  %73 = load ptr, ptr %7, align 8
  %74 = call i32 @listdb(ptr noundef %72, ptr noundef %73, ptr noundef null)
  store i32 %74, ptr %6, align 4
  br label %75

75:                                               ; preds = %71, %70
  br label %97

76:                                               ; preds = %22
  %77 = load ptr, ptr %4, align 8
  %78 = call ptr @optget(ptr noundef %77, ptr noundef @.str.28)
  %79 = getelementptr inbounds %struct.optstruct, ptr %78, i32 0, i32 2
  %80 = load ptr, ptr %79, align 8
  %81 = call i32 @cli_regcomp(ptr noundef %10, ptr noundef %80, i32 noundef 5)
  %82 = icmp ne i32 %81, 0
  br i1 %82, label %83, label %84

83:                                               ; preds = %76
  call void (i32, ptr, ...) @mprintf(i32 noundef 0, ptr noundef @.str.303)
  store i32 -1, ptr %3, align 4
  br label %99

84:                                               ; preds = %76
  store i16 1, ptr @mprintf_stdout, align 2
  %85 = call ptr @freshdbdir()
  store ptr %85, ptr %8, align 8
  %86 = load ptr, ptr %4, align 8
  %87 = load ptr, ptr %11, align 8
  %88 = icmp ne ptr %87, null
  br i1 %88, label %89, label %91

89:                                               ; preds = %84
  %90 = load ptr, ptr %11, align 8
  br label %93

91:                                               ; preds = %84
  %92 = load ptr, ptr %8, align 8
  br label %93

93:                                               ; preds = %91, %89
  %94 = phi ptr [ %90, %89 ], [ %92, %91 ]
  %95 = call i32 @listdir(ptr noundef %86, ptr noundef %94, ptr noundef %10)
  store i32 %95, ptr %6, align 4
  %96 = load ptr, ptr %8, align 8
  call void @free(ptr noundef %96) #11
  call void @cli_regfree(ptr noundef %10)
  br label %97

97:                                               ; preds = %93, %75
  %98 = load i32, ptr %6, align 4
  store i32 %98, ptr %3, align 4
  br label %99

99:                                               ; preds = %97, %83, %42
  %100 = load i32, ptr %3, align 4
  ret i32 %100
}