; Function Attrs: nounwind uwtable
define internal fastcc noundef i32 @listsigs(ptr noundef %0, i32 noundef %1) unnamed_addr #0 {
  %3 = alloca %struct.stat, align 8
  %4 = alloca %struct.regex_t, align 8
  %5 = tail call ptr @optget(ptr noundef %0, ptr noundef nonnull @.str.158) #25
  %6 = getelementptr inbounds i8, ptr %5, i64 36
  %7 = load i32, ptr %6, align 4
  %.not = icmp eq i32 %7, 0
  br i1 %.not, label %12, label %8

8:                                                ; preds = %2
  %9 = tail call ptr @optget(ptr noundef %0, ptr noundef nonnull @.str.158) #25
  %10 = getelementptr inbounds i8, ptr %9, i64 16
  %11 = load ptr, ptr %10, align 8
  br label %12

12:                                               ; preds = %8, %2
  %.0 = phi ptr [ %11, %8 ], [ null, %2 ]
  %13 = icmp eq i32 %1, 0
  br i1 %13, label %14, label %39

14:                                               ; preds = %12
  %15 = tail call ptr @optget(ptr noundef %0, ptr noundef nonnull @.str.27) #25
  %16 = getelementptr inbounds i8, ptr %15, i64 16
  %17 = load ptr, ptr %16, align 8
  %18 = tail call i32 @access(ptr noundef %17, i32 noundef 4) #25
  %19 = icmp ne i32 %18, 0
  %20 = icmp ne ptr %.0, null
  %or.cond = select i1 %19, i1 %20, i1 false
  %spec.select = select i1 %or.cond, ptr %.0, ptr %17
  %21 = call i32 @stat(ptr noundef %spec.select, ptr noundef nonnull %3) #25
  %22 = icmp eq i32 %21, -1
  br i1 %22, label %23, label %24

23:                                               ; preds = %14
  tail call void (i32, ptr, ...) @mprintf(i32 noundef 0, ptr noundef nonnull @.str.301, ptr noundef %spec.select) #25
  br label %49

24:                                               ; preds = %14
  store i16 1, ptr @mprintf_stdout, align 2
  %25 = getelementptr inbounds i8, ptr %3, i64 24
  %26 = load i32, ptr %25, align 8
  %27 = and i32 %26, 61440
  %28 = icmp eq i32 %27, 16384
  br i1 %28, label %29, label %37

29:                                               ; preds = %24
  %30 = tail call i32 @strcmp(ptr noundef nonnull dereferenceable(1) %spec.select, ptr noundef nonnull dereferenceable(24) @.str.302) #31
  %.not32 = icmp eq i32 %30, 0
  br i1 %.not32, label %31, label %35

31:                                               ; preds = %29
  %32 = tail call ptr @freshdbdir() #25
  %33 = select i1 %20, ptr %.0, ptr %32
  %34 = tail call fastcc i32 @listdir(ptr noundef %0, ptr noundef %33, ptr noundef null), !range !5
  tail call void @free(ptr noundef %32) #25
  br label %49

35:                                               ; preds = %29
  %36 = tail call fastcc i32 @listdir(ptr noundef %0, ptr noundef %spec.select, ptr noundef null), !range !5
  br label %49

37:                                               ; preds = %24
  %38 = tail call fastcc i32 @listdb(ptr noundef %0, ptr noundef %spec.select, ptr noundef null), !range !5
  br label %49

39:                                               ; preds = %12
  %40 = tail call ptr @optget(ptr noundef %0, ptr noundef nonnull @.str.28) #25
  %41 = getelementptr inbounds i8, ptr %40, i64 16
  %42 = load ptr, ptr %41, align 8
  %43 = call i32 @cli_regcomp(ptr noundef nonnull %4, ptr noundef %42, i32 noundef 5) #25
  %.not30 = icmp eq i32 %43, 0
  br i1 %.not30, label %45, label %44

44:                                               ; preds = %39
  call void (i32, ptr, ...) @mprintf(i32 noundef 0, ptr noundef nonnull @.str.303) #25
  br label %49

45:                                               ; preds = %39
  store i16 1, ptr @mprintf_stdout, align 2
  %46 = call ptr @freshdbdir() #25
  %.not31 = icmp eq ptr %.0, null
  %47 = select i1 %.not31, ptr %46, ptr %.0
  %48 = call fastcc i32 @listdir(ptr noundef %0, ptr noundef %47, ptr noundef nonnull %4), !range !5
  call void @free(ptr noundef %46) #25
  call void @cli_regfree(ptr noundef nonnull %4) #25
  br label %49

49:                                               ; preds = %45, %31, %35, %37, %44, %23
  %.029 = phi i32 [ -1, %23 ], [ -1, %44 ], [ %36, %35 ], [ %34, %31 ], [ %38, %37 ], [ %48, %45 ]
  ret i32 %.029
}